; Function Attrs: mustprogress nofree norecurse nosync nounwind willreturn memory(argmem: read) uwtable
define internal noundef zeroext i1 @_ZNK4absl18container_internal12_GLOBAL__N_119IsSameSliceMatcherPINS_4SpanIKNS1_6Int128EEEE10gmock_ImplIRKS6_E15MatchAndExplainESA_PN7testing19MatchResultListenerE(ptr nocapture noundef nonnull readonly align 8 dereferenceable(24) %this, ptr nocapture noundef nonnull readonly align 8 dereferenceable(16) %arg, ptr nocapture readnone %result_listener) unnamed_addr #14 align 2 {
entry:
  %0 = getelementptr inbounds i8, ptr %arg, i64 8
  %arg.val = load i64, ptr %0, align 8
  %slice = getelementptr inbounds i8, ptr %this, i64 8
  %1 = getelementptr inbounds i8, ptr %this, i64 16
  %slice.val = load i64, ptr %1, align 8
  %cmp = icmp eq i64 %arg.val, %slice.val
  %arg.val3 = load ptr, ptr %arg, align 8
  %slice.val2 = load ptr, ptr %slice, align 8
  %cmp6 = icmp eq ptr %arg.val3, %slice.val2
  %2 = select i1 %cmp, i1 %cmp6, i1 false
  ret i1 %2
}